; Function Attrs: mustprogress uwtable
define hidden noundef i32 @_ZN4ncnn31ConvolutionDepthWise_x86_avx51216destroy_pipelineERKNS_6OptionE(ptr noundef nonnull align 8 captures(none) dereferenceable(824) %0, ptr noundef nonnull align 8 dereferenceable(64) %1) unnamed_addr #2 align 2 personality ptr @__gxx_personality_v0 {
  %3 = getelementptr inbounds nuw i8, ptr %0, i64 720
  %4 = load ptr, ptr %3, align 8, !tbaa !42
  %.not = icmp eq ptr %4, null
  br i1 %.not, label %17, label %5

5:                                                ; preds = %2
  %6 = load ptr, ptr %4, align 8, !tbaa !4
  %7 = getelementptr inbounds nuw i8, ptr %6, i64 40
  %8 = load ptr, ptr %7, align 8
  %9 = tail call noundef i32 %8(ptr noundef nonnull align 8 dereferenceable(208) %4, ptr noundef nonnull align 8 dereferenceable(64) %1)
  %10 = load ptr, ptr %3, align 8, !tbaa !42
  %11 = icmp eq ptr %10, null
  br i1 %11, label %16, label %12

12:                                               ; preds = %5
  %13 = load ptr, ptr %10, align 8, !tbaa !4
  %14 = getelementptr inbounds nuw i8, ptr %13, i64 8
  %15 = load ptr, ptr %14, align 8
  tail call void %15(ptr noundef nonnull align 8 dereferenceable(208) %10) #14
  br label %16

16:                                               ; preds = %12, %5
  store ptr null, ptr %3, align 8, !tbaa !42
  br label %17

17:                                               ; preds = %16, %2
  %18 = getelementptr inbounds nuw i8, ptr %0, i64 728
  %19 = getelementptr inbounds nuw i8, ptr %0, i64 736
  %20 = load ptr, ptr %19, align 8, !tbaa !66
  %21 = load ptr, ptr %18, align 8, !tbaa !18
  %22 = ptrtoint ptr %20 to i64
  %23 = ptrtoint ptr %21 to i64
  %24 = sub i64 %22, %23
  %25 = lshr exact i64 %24, 3
  %26 = trunc i64 %25 to i32
  %27 = icmp sgt i32 %26, 0
  br i1 %27, label %.lr.ph, label %._crit_edge

._crit_edge:                                      ; preds = %44, %17
  %.lcssa9 = phi ptr [ %20, %17 ], [ %46, %44 ]
  %.lcssa = phi ptr [ %21, %17 ], [ %45, %44 ]
  %.not.i.i = icmp eq ptr %.lcssa9, %.lcssa
  br i1 %.not.i.i, label %_ZNSt6vectorIPN4ncnn5LayerESaIS2_EE5clearEv.exit, label %28

28:                                               ; preds = %._crit_edge
  store ptr %.lcssa, ptr %19, align 8, !tbaa !66
  br label %_ZNSt6vectorIPN4ncnn5LayerESaIS2_EE5clearEv.exit

_ZNSt6vectorIPN4ncnn5LayerESaIS2_EE5clearEv.exit: ; preds = %._crit_edge, %28
  ret i32 0

.lr.ph:                                           ; preds = %17, %44
  %indvars.iv = phi i64 [ %indvars.iv.next, %44 ], [ 0, %17 ]
  %29 = phi ptr [ %45, %44 ], [ %21, %17 ]
  %30 = getelementptr inbounds nuw ptr, ptr %29, i64 %indvars.iv
  %31 = load ptr, ptr %30, align 8, !tbaa !67
  %32 = load ptr, ptr %31, align 8, !tbaa !4
  %33 = getelementptr inbounds nuw i8, ptr %32, i64 40
  %34 = load ptr, ptr %33, align 8
  %35 = tail call noundef i32 %34(ptr noundef nonnull align 8 dereferenceable(208) %31, ptr noundef nonnull align 8 dereferenceable(64) %1)
  %36 = load ptr, ptr %18, align 8, !tbaa !18
  %37 = getelementptr inbounds nuw ptr, ptr %36, i64 %indvars.iv
  %38 = load ptr, ptr %37, align 8, !tbaa !67
  %39 = icmp eq ptr %38, null
  br i1 %39, label %44, label %40

40:                                               ; preds = %.lr.ph
  %41 = load ptr, ptr %38, align 8, !tbaa !4
  %42 = getelementptr inbounds nuw i8, ptr %41, i64 8
  %43 = load ptr, ptr %42, align 8
  tail call void %43(ptr noundef nonnull align 8 dereferenceable(208) %38) #14
  %.pre = load ptr, ptr %18, align 8, !tbaa !18
  br label %44

44:                                               ; preds = %.lr.ph, %40
  %45 = phi ptr [ %36, %.lr.ph ], [ %.pre, %40 ]
  %indvars.iv.next = add nuw nsw i64 %indvars.iv, 1
  %46 = load ptr, ptr %19, align 8, !tbaa !66
  %47 = ptrtoint ptr %46 to i64
  %48 = ptrtoint ptr %45 to i64
  %49 = sub i64 %47, %48
  %sext = shl i64 %49, 29
  %50 = ashr i64 %sext, 32
  %51 = icmp slt i64 %indvars.iv.next, %50
  br i1 %51, label %.lr.ph, label %._crit_edge, !llvm.loop !68
}